; Function Attrs: nofree norecurse nosync nounwind memory(argmem: readwrite) uwtable
define void @Sim_UtilSetCompl(ptr noundef captures(none) %0, i32 noundef %1) local_unnamed_addr #6 {
  %3 = icmp sgt i32 %1, 0
  br i1 %3, label %.lr.ph.preheader, label %._crit_edge

.lr.ph.preheader:                                 ; preds = %2
  %wide.trip.count = zext nneg i32 %1 to i64
  br label %.lr.ph

.lr.ph:                                           ; preds = %.lr.ph.preheader, %.lr.ph
  %indvars.iv = phi i64 [ 0, %.lr.ph.preheader ], [ %indvars.iv.next, %.lr.ph ]
  %4 = getelementptr inbounds nuw i32, ptr %0, i64 %indvars.iv
  %5 = load i32, ptr %4, align 4, !tbaa !14
  %6 = xor i32 %5, -1
  store i32 %6, ptr %4, align 4, !tbaa !14
  %indvars.iv.next = add nuw nsw i64 %indvars.iv, 1
  %exitcond.not = icmp eq i64 %indvars.iv.next, %wide.trip.count
  br i1 %exitcond.not, label %._crit_edge, label %.lr.ph, !llvm.loop !81

._crit_edge:                                      ; preds = %.lr.ph, %2
  ret void
}